_RINvCsaRN1VPjcjfp_12test_symbols13const_genericKj5_EB2_
_RINvCsaRN1VPjcjfp_12test_symbols13multi_generichtmEB2_
_RINvCsaRN1VPjcjfp_12test_symbols16generic_functionReEB2_
_RINvCsaRN1VPjcjfp_12test_symbols16generic_functiondEB2_
_RINvCsaRN1VPjcjfp_12test_symbols16generic_functionlEB2_
_RINvMCsaRN1VPjcjfp_12test_symbolsNtB3_12SimpleStruct14generic_methodlEB3_
_RINvMNtCs35vC3OypZpH_4core6optionINtB3_6OptionReE11map_or_elseNtNtCshsEHAXgLWmz_5alloc6string6StringNCNvNtB12_3fmt6format0NvYeNtNtB12_6borrow7ToOwned8to_ownedECsaRN1VPjcjfp_12test_symbols
_RINvMNtNtCs35vC3OypZpH_4core3fmt2rtNtB3_8Argument11new_displayReECsaRN1VPjcjfp_12test_symbols
_RINvMNtNtCs35vC3OypZpH_4core3fmt2rtNtB3_8Argument11new_displaydECsaRN1VPjcjfp_12test_symbols
_RINvMNtNtCs35vC3OypZpH_4core3fmt2rtNtB3_8Argument11new_displaylECsaRN1VPjcjfp_12test_symbols
_RINvMs_NtNtCs35vC3OypZpH_4core3fmt2rtNtB7_9Arguments6new_v1Kj1_KBW_ECsaRN1VPjcjfp_12test_symbols
_RINvNtCs35vC3OypZpH_4core3ptr13drop_in_placeINtCsaRN1VPjcjfp_12test_symbols11GenericEnumlNtNtCshsEHAXgLWmz_5alloc6string6StringEEBJ_
_RINvNtCs35vC3OypZpH_4core3ptr13drop_in_placeINtCsaRN1VPjcjfp_12test_symbols13GenericStructNtNtCshsEHAXgLWmz_5alloc6string6StringEEBJ_
_RINvNtCs35vC3OypZpH_4core3ptr13drop_in_placeINtCsaRN1VPjcjfp_12test_symbols4ListReEEBJ_
_RINvNtCs35vC3OypZpH_4core3ptr13drop_in_placeINtCsaRN1VPjcjfp_12test_symbols4ListlEEBJ_
_RINvNtCs35vC3OypZpH_4core3ptr13drop_in_placeINtCsaRN1VPjcjfp_12test_symbols7ComplexlNtNtCshsEHAXgLWmz_5alloc6string6StringEEBJ_
_RINvNtCs35vC3OypZpH_4core3ptr13drop_in_placeINtNtB4_6option6OptionINtNtCshsEHAXgLWmz_5alloc5boxed3BoxINtCsaRN1VPjcjfp_12test_symbols4ListReEEEEB1E_
_RINvNtCs35vC3OypZpH_4core3ptr13drop_in_placeINtNtB4_6option6OptionINtNtCshsEHAXgLWmz_5alloc5boxed3BoxINtCsaRN1VPjcjfp_12test_symbols4ListlEEEEB1E_
_RINvNtCs35vC3OypZpH_4core3ptr13drop_in_placeINtNtCshsEHAXgLWmz_5alloc3vec3VecTlINtCsaRN1VPjcjfp_12test_symbols13GenericStructNtNtBL_6string6StringEEEEB1i_
_RINvNtCs35vC3OypZpH_4core3ptr13drop_in_placeINtNtCshsEHAXgLWmz_5alloc3vec3VechEECsaRN1VPjcjfp_12test_symbols
_RINvNtCs35vC3OypZpH_4core3ptr13drop_in_placeINtNtCshsEHAXgLWmz_5alloc5boxed3BoxINtCsaRN1VPjcjfp_12test_symbols4ListReEEEB1i_
_RINvNtCs35vC3OypZpH_4core3ptr13drop_in_placeINtNtCshsEHAXgLWmz_5alloc5boxed3BoxINtCsaRN1VPjcjfp_12test_symbols4ListlEEEB1i_
_RINvNtCs35vC3OypZpH_4core3ptr13drop_in_placeINtNtCshsEHAXgLWmz_5alloc7raw_vec6RawVecTlINtCsaRN1VPjcjfp_12test_symbols13GenericStructNtNtBL_6string6StringEEEEB1p_
_RINvNtCs35vC3OypZpH_4core3ptr13drop_in_placeINtNtCshsEHAXgLWmz_5alloc7raw_vec6RawVechEECsaRN1VPjcjfp_12test_symbols
_RINvNtCs35vC3OypZpH_4core3ptr13drop_in_placeNtCsaRN1VPjcjfp_12test_symbols10SimpleEnumEBI_
_RINvNtCs35vC3OypZpH_4core3ptr13drop_in_placeNtCsaRN1VPjcjfp_12test_symbols12SimpleStructEBI_
_RINvNtCs35vC3OypZpH_4core3ptr13drop_in_placeNtNtCshsEHAXgLWmz_5alloc6string6StringECsaRN1VPjcjfp_12test_symbols
_RINvNtCs35vC3OypZpH_4core3ptr13drop_in_placeSTlINtCsaRN1VPjcjfp_12test_symbols13GenericStructNtNtCshsEHAXgLWmz_5alloc6string6StringEEEBM_
_RINvNtCs35vC3OypZpH_4core3ptr13drop_in_placeTlINtCsaRN1VPjcjfp_12test_symbols13GenericStructNtNtCshsEHAXgLWmz_5alloc6string6StringEEEBL_
_RINvXs_NvMNtCshsEHAXgLWmz_5alloc5sliceSp9to_vec_inhNtB5_10ConvertVec6to_vecNtNtBa_5alloc6GlobalECsaRN1VPjcjfp_12test_symbols
_RNCNvNtCshsEHAXgLWmz_5alloc3fmt6format0CsaRN1VPjcjfp_12test_symbols
_RNvCsaRN1VPjcjfp_12test_symbols11float_types
_RNvCsaRN1VPjcjfp_12test_symbols12STATIC_VALUE
_RNvCsaRN1VPjcjfp_12test_symbols12ptr_function
_RNvCsaRN1VPjcjfp_12test_symbols12ref_function
_RNvCsaRN1VPjcjfp_12test_symbols12takes_fn_ptr
_RNvCsaRN1VPjcjfp_12test_symbols13integer_types
_RNvCsaRN1VPjcjfp_12test_symbols14array_function
_RNvCsaRN1VPjcjfp_12test_symbols14multi_lifetime
_RNvCsaRN1VPjcjfp_12test_symbols14slice_function
_RNvCsaRN1VPjcjfp_12test_symbols14tuple_function
_RNvCsaRN1VPjcjfp_12test_symbols15returns_closure
_RNvCsaRN1VPjcjfp_12test_symbols15unsafe_function
_RNvCsaRN1VPjcjfp_12test_symbols17lifetime_function
_RNvCsaRN1VPjcjfp_12test_symbols18takes_trait_object
_RNvCsaRN1VPjcjfp_12test_symbols20instantiate_generics
_RNvMCsaRN1VPjcjfp_12test_symbolsNtB2_12SimpleStruct3new
_RNvMCsaRN1VPjcjfp_12test_symbolsNtB2_12SimpleStruct6method
_RNvMNtCs35vC3OypZpH_4core3stre3lenCsaRN1VPjcjfp_12test_symbols
_RNvMNtCsaRN1VPjcjfp_12test_symbols5innerNtB2_11InnerStruct12inner_method
_RNvMNtCsaRN1VPjcjfp_12test_symbols7unicodeNtB2_u6F_1gaau10mthod_bsae
_RNvMNtCshsEHAXgLWmz_5alloc3vecINtB2_3VecTlINtCsaRN1VPjcjfp_12test_symbols13GenericStructNtNtB4_6string6StringEEE3newBH_
_RNvMs0_CsaRN1VPjcjfp_12test_symbolsINtB5_13GenericStructlE11clone_valueB5_
_RNvMs0_NtCshsEHAXgLWmz_5alloc7raw_vecINtB5_6RawVecTlINtCsaRN1VPjcjfp_12test_symbols13GenericStructNtNtB7_6string6StringEEE8grow_oneBR_
_RNvMs2_NtCshsEHAXgLWmz_5alloc7raw_vecNtB5_11RawVecInner16with_capacity_inCsaRN1VPjcjfp_12test_symbols
_RNvMs7_CsaRN1VPjcjfp_12test_symbolsINtB5_4ListReE9singletonB5_
_RNvMs7_CsaRN1VPjcjfp_12test_symbolsINtB5_4ListlE9singletonB5_
_RNvMs8_CsaRN1VPjcjfp_12test_symbolsINtB5_7ComplexlNtNtCshsEHAXgLWmz_5alloc6string6StringE3addB5_
_RNvMs8_CsaRN1VPjcjfp_12test_symbolsINtB5_7ComplexlNtNtCshsEHAXgLWmz_5alloc6string6StringE3newB5_
_RNvMs_CsaRN1VPjcjfp_12test_symbolsINtB4_13GenericStructNtNtCshsEHAXgLWmz_5alloc6string6StringE3newB4_
_RNvMs_CsaRN1VPjcjfp_12test_symbolsINtB4_13GenericStructReE3newB4_
_RNvMs_CsaRN1VPjcjfp_12test_symbolsINtB4_13GenericStructlE3getB4_
_RNvMs_CsaRN1VPjcjfp_12test_symbolsINtB4_13GenericStructlE3newB4_
_RNvMs_NtCshsEHAXgLWmz_5alloc3vecINtB4_3VecTlINtCsaRN1VPjcjfp_12test_symbols13GenericStructNtNtB6_6string6StringEEE4pushBJ_
_RNvMs_NtCshsEHAXgLWmz_5alloc3vecINtB4_3VecTlINtCsaRN1VPjcjfp_12test_symbols13GenericStructNtNtB6_6string6StringEEE8push_mutBJ_
_RNvNtCs35vC3OypZpH_4core10intrinsics9cold_pathCsaRN1VPjcjfp_12test_symbols
_RNvNtCsaRN1VPjcjfp_12test_symbols5inner14inner_function
_RNvNtCsaRN1VPjcjfp_12test_symbols7unicodeu10wgv71a119e
_RNvNtCsaRN1VPjcjfp_12test_symbols7unicodeu12twa0c6aifdar
_RNvNtCsaRN1VPjcjfp_12test_symbols7unicodeu7caf_dma
_RNvNtCshsEHAXgLWmz_5alloc3fmt6formatCsaRN1VPjcjfp_12test_symbols
_RNvNtNtCs35vC3OypZpH_4core4char7methods25encode_utf8_raw_uncheckedCsaRN1VPjcjfp_12test_symbols
_RNvNtNtCsaRN1VPjcjfp_12test_symbols5inner6nested22deeply_nested_function
_RNvNvMNtNtCs35vC3OypZpH_4core5alloc6layoutNtB4_6Layout25from_size_align_unchecked18precondition_checkCsaRN1VPjcjfp_12test_symbols
_RNvNvMs_NtCshsEHAXgLWmz_5alloc3vecINtB6_3VecppE7set_len18precondition_checkCsaRN1VPjcjfp_12test_symbols
_RNvNvNtCs35vC3OypZpH_4core3ptr19copy_nonoverlapping18precondition_checkCsaRN1VPjcjfp_12test_symbols
_RNvNvNtCs35vC3OypZpH_4core4hint16assert_unchecked18precondition_checkCsaRN1VPjcjfp_12test_symbols
_RNvNvNtCs35vC3OypZpH_4core9ub_checks23maybe_is_nonoverlapping7runtimeCsaRN1VPjcjfp_12test_symbols
_RNvXs1V_NtCshsEHAXgLWmz_5alloc6stringeNtB6_12SpecToString14spec_to_stringCsaRN1VPjcjfp_12test_symbols
_RNvXs1_CsaRN1VPjcjfp_12test_symbolsNtB5_12SimpleStructNtB5_11SimpleTrait12trait_method
_RNvXs1_NtCshsEHAXgLWmz_5alloc7raw_vecINtB5_6RawVecTlINtCsaRN1VPjcjfp_12test_symbols13GenericStructNtNtB7_6string6StringEEENtNtNtCs35vC3OypZpH_4core3ops4drop4Drop4dropBR_
_RNvXs1z_NtCshsEHAXgLWmz_5alloc6stringlNtB6_12SpecToString14spec_to_stringCsaRN1VPjcjfp_12test_symbols
_RNvXs2_CsaRN1VPjcjfp_12test_symbolslNtB5_11SimpleTrait12trait_method
_RNvXs2_NtCshsEHAXgLWmz_5alloc3streNtNtB7_6borrow7ToOwned8to_ownedCsaRN1VPjcjfp_12test_symbols
_RNvXs4_CsaRN1VPjcjfp_12test_symbolslNtB5_10AssocTrait12assoc_method
_RNvXs5_CsaRN1VPjcjfp_12test_symbolsNtB5_12SimpleStructNtB5_12DefaultTrait15required_method
_RNvXs6_NtCshsEHAXgLWmz_5alloc5boxedINtB5_3BoxINtCsaRN1VPjcjfp_12test_symbols4ListReEENtNtNtCs35vC3OypZpH_4core3ops4drop4Drop4dropBK_
_RNvXs6_NtCshsEHAXgLWmz_5alloc5boxedINtB5_3BoxINtCsaRN1VPjcjfp_12test_symbols4ListlEENtNtNtCs35vC3OypZpH_4core3ops4drop4Drop4dropBK_
_RNvXs_NtCshsEHAXgLWmz_5alloc5allocNtB4_6GlobalNtNtCs35vC3OypZpH_4core5alloc9Allocator10deallocateCsaRN1VPjcjfp_12test_symbols
_RNvXsn_NtCshsEHAXgLWmz_5alloc3vecINtB5_3VecTlINtCsaRN1VPjcjfp_12test_symbols13GenericStructNtNtB7_6string6StringEEENtNtNtCs35vC3OypZpH_4core3ops4drop4Drop4dropBK_
_RNvXsw_NtCshsEHAXgLWmz_5alloc6stringeNtB5_8ToString9to_stringCsaRN1VPjcjfp_12test_symbols
_RNvXsw_NtCshsEHAXgLWmz_5alloc6stringlNtB5_8ToString9to_stringCsaRN1VPjcjfp_12test_symbols
_RNvYNvYeNtNtCshsEHAXgLWmz_5alloc6borrow7ToOwned8to_ownedINtNtNtCs35vC3OypZpH_4core3ops8function6FnOnceTReEE9call_onceCsaRN1VPjcjfp_12test_symbols
